; Function Attrs: mustprogress uwtable
define hidden void @_ZN18mpz_matrix_manager3delER10mpz_matrix(ptr noundef nonnull readonly align 8 captures(none) dereferenceable(16) %0, ptr noundef nonnull align 8 captures(none) dereferenceable(16) %1) local_unnamed_addr #4 align 2 {
  %3 = getelementptr inbounds nuw i8, ptr %1, i64 8
  %4 = load ptr, ptr %3, align 8, !tbaa !10
  %.not = icmp eq ptr %4, null
  br i1 %.not, label %31, label %.preheader19

.preheader19:                                     ; preds = %2
  %5 = load i32, ptr %1, align 8, !tbaa !14
  %.not23 = icmp eq i32 %5, 0
  %.phi.trans.insert = getelementptr inbounds nuw i8, ptr %1, i64 4
  %.pre28 = load i32, ptr %.phi.trans.insert, align 4, !tbaa !15
  br i1 %.not23, label %._crit_edge22, label %.preheader.lr.ph

.preheader.lr.ph:                                 ; preds = %.preheader19
  %.not24 = icmp eq i32 %.pre28, 0
  br i1 %.not24, label %._crit_edge22, label %.preheader

.preheader:                                       ; preds = %.preheader.lr.ph, %._crit_edge
  %6 = phi i32 [ %16, %._crit_edge ], [ %.pre28, %.preheader.lr.ph ]
  %7 = phi i32 [ %17, %._crit_edge ], [ %5, %.preheader.lr.ph ]
  %8 = phi i32 [ %18, %._crit_edge ], [ %.pre28, %.preheader.lr.ph ]
  %.021 = phi i32 [ %19, %._crit_edge ], [ 0, %.preheader.lr.ph ]
  %.not25 = icmp eq i32 %8, 0
  br i1 %.not25, label %._crit_edge, label %.lr.ph

._crit_edge22.loopexit26:                         ; preds = %._crit_edge
  %.pre29 = load ptr, ptr %3, align 8, !tbaa !10
  br label %._crit_edge22

._crit_edge22:                                    ; preds = %.preheader19, %.preheader.lr.ph, %._crit_edge22.loopexit26
  %9 = phi ptr [ %.pre29, %._crit_edge22.loopexit26 ], [ %4, %.preheader.lr.ph ], [ %4, %.preheader19 ]
  %10 = phi i32 [ %16, %._crit_edge22.loopexit26 ], [ 0, %.preheader.lr.ph ], [ %.pre28, %.preheader19 ]
  %.lcssa = phi i32 [ %17, %._crit_edge22.loopexit26 ], [ %5, %.preheader.lr.ph ], [ 0, %.preheader19 ]
  %11 = shl i32 %.lcssa, 4
  %12 = mul i32 %11, %10
  %13 = getelementptr inbounds nuw i8, ptr %0, i64 8
  %14 = load ptr, ptr %13, align 8, !tbaa !16
  %15 = zext i32 %12 to i64
  tail call void @_ZN22small_object_allocator10deallocateEmPv(ptr noundef nonnull align 8 dereferenceable(520) %14, i64 noundef %15, ptr noundef %9)
  tail call void @llvm.memset.p0.i64(ptr noundef nonnull align 8 dereferenceable(16) %1, i8 0, i64 16, i1 false)
  br label %31

._crit_edge.loopexit:                             ; preds = %.lr.ph
  %.pre = load i32, ptr %1, align 8, !tbaa !14
  br label %._crit_edge

._crit_edge:                                      ; preds = %._crit_edge.loopexit, %.preheader
  %16 = phi i32 [ %29, %._crit_edge.loopexit ], [ %6, %.preheader ]
  %17 = phi i32 [ %.pre, %._crit_edge.loopexit ], [ %7, %.preheader ]
  %18 = phi i32 [ %29, %._crit_edge.loopexit ], [ 0, %.preheader ]
  %19 = add nuw i32 %.021, 1
  %20 = icmp ult i32 %19, %17
  br i1 %20, label %.preheader, label %._crit_edge22.loopexit26, !llvm.loop !18

.lr.ph:                                           ; preds = %.preheader, %.lr.ph
  %21 = phi i32 [ %29, %.lr.ph ], [ %8, %.preheader ]
  %.01720 = phi i32 [ %28, %.lr.ph ], [ 0, %.preheader ]
  %22 = load ptr, ptr %0, align 8, !tbaa !21
  %23 = load ptr, ptr %3, align 8, !tbaa !10
  %24 = mul i32 %21, %.021
  %25 = add i32 %24, %.01720
  %26 = zext i32 %25 to i64
  %27 = getelementptr inbounds nuw %class.mpz, ptr %23, i64 %26
  tail call void @_ZN11mpz_managerILb0EE3delEPS0_R3mpz(ptr noundef nonnull align 8 dereferenceable(600) %22, ptr noundef nonnull align 8 dereferenceable(16) %27)
  %28 = add nuw i32 %.01720, 1
  %29 = load i32, ptr %.phi.trans.insert, align 4, !tbaa !15
  %30 = icmp ult i32 %28, %29
  br i1 %30, label %.lr.ph, label %._crit_edge.loopexit, !llvm.loop !22

31:                                               ; preds = %._crit_edge22, %2
  ret void
}